; Function Attrs: mustprogress uwtable
define void @_ZN10MainWindow10showRasterEv(ptr nocapture noundef nonnull readonly align 8 dereferenceable(1376) %0) local_unnamed_addr #9 align 2 {
  %2 = getelementptr inbounds i8, ptr %0, i64 1368
  %3 = load ptr, ptr %2, align 8
  %.not.i = icmp eq ptr %3, null
  br i1 %.not.i, label %_ZNK10MainWindow3GLAEv.exit.thread, label %_ZNK10MainWindow3GLAEv.exit

_ZNK10MainWindow3GLAEv.exit:                      ; preds = %1
  %4 = getelementptr inbounds i8, ptr %3, i64 256
  %5 = load ptr, ptr %4, align 8
  %.not = icmp eq ptr %5, null
  br i1 %.not, label %_ZNK10MainWindow3GLAEv.exit.thread, label %_ZNK10MainWindow3GLAEv.exit3

_ZNK10MainWindow3GLAEv.exit3:                     ; preds = %_ZNK10MainWindow3GLAEv.exit
  %6 = tail call i32 @_ZN15QGuiApplication17keyboardModifiersEv()
  %7 = and i32 %6, 33554432
  %8 = icmp ne i32 %7, 0
  tail call void @_ZN6GLArea10showRasterEb(ptr noundef nonnull align 8 dereferenceable(1676) %5, i1 noundef zeroext %8)
  br label %_ZNK10MainWindow3GLAEv.exit.thread

_ZNK10MainWindow3GLAEv.exit.thread:               ; preds = %1, %_ZNK10MainWindow3GLAEv.exit3, %_ZNK10MainWindow3GLAEv.exit
  ret void
}